target datalayout = "e-m:e-p270:32:32-p271:32:32-p272:64:64-i64:64-i128:128-f80:128-n8:16:32:64-S128"
target triple = "x86_64-pc-linux-gnu"

@.str.4 = private unnamed_addr constant [8 x i8] c"default\00", align 1
@.str.260 = private unnamed_addr constant [8 x i8] c"context\00", align 1
@.str.263 = private unnamed_addr constant [4 x i8] c"old\00", align 1
@.str.264 = private unnamed_addr constant [4 x i8] c"new\00", align 1
@.str.293 = private unnamed_addr constant [5 x i8] c"none\00", align 1
@.str.294 = private unnamed_addr constant [4 x i8] c"all\00", align 1

; Function Attrs: inlinehint nounwind uwtable
define internal zeroext i1 @skip_prefix(ptr noundef %0, ptr noundef %1, ptr noundef %2) #2 {
  %4 = alloca i1, align 1
  %5 = alloca ptr, align 8
  %6 = alloca ptr, align 8
  %7 = alloca ptr, align 8
  store ptr %0, ptr %5, align 8, !tbaa !9
  store ptr %1, ptr %6, align 8, !tbaa !9
  store ptr %2, ptr %7, align 8, !tbaa !50
  br label %8

8:                                                ; preds = %16, %3
  %9 = load ptr, ptr %6, align 8, !tbaa !9
  %10 = load i8, ptr %9, align 1, !tbaa !48
  %11 = icmp ne i8 %10, 0
  br i1 %11, label %15, label %12

12:                                               ; preds = %8
  %13 = load ptr, ptr %5, align 8, !tbaa !9
  %14 = load ptr, ptr %7, align 8, !tbaa !50
  store ptr %13, ptr %14, align 8, !tbaa !9
  store i1 true, ptr %4, align 1
  br label %27

15:                                               ; preds = %8
  br label %16

16:                                               ; preds = %15
  %17 = load ptr, ptr %5, align 8, !tbaa !9
  %18 = getelementptr inbounds nuw i8, ptr %17, i32 1
  store ptr %18, ptr %5, align 8, !tbaa !9
  %19 = load i8, ptr %17, align 1, !tbaa !48
  %20 = sext i8 %19 to i32
  %21 = load ptr, ptr %6, align 8, !tbaa !9
  %22 = getelementptr inbounds nuw i8, ptr %21, i32 1
  store ptr %22, ptr %6, align 8, !tbaa !9
  %23 = load i8, ptr %21, align 1, !tbaa !48
  %24 = sext i8 %23 to i32
  %25 = icmp eq i32 %20, %24
  br i1 %25, label %8, label %26, !llvm.loop !51

26:                                               ; preds = %16
  store i1 false, ptr %4, align 1
  br label %27

27:                                               ; preds = %26, %12
  %28 = load i1, ptr %4, align 1
  ret i1 %28
}

; Function Attrs: nounwind uwtable
define internal i32 @parse_one_token(ptr noundef %0, ptr noundef %1) #0 {
  %3 = alloca i32, align 4
  %4 = alloca ptr, align 8
  %5 = alloca ptr, align 8
  %6 = alloca ptr, align 8
  %7 = alloca i32, align 4
  store ptr %0, ptr %4, align 8, !tbaa !50
  store ptr %1, ptr %5, align 8, !tbaa !9
  call void @llvm.lifetime.start.p0(i64 8, ptr %6) #10
  %8 = load ptr, ptr %4, align 8, !tbaa !50
  %9 = load ptr, ptr %8, align 8, !tbaa !9
  %10 = load ptr, ptr %5, align 8, !tbaa !9
  %11 = call zeroext i1 @skip_prefix(ptr noundef %9, ptr noundef %10, ptr noundef %6)
  br i1 %11, label %12, label %24

12:                                               ; preds = %2
  %13 = load ptr, ptr %6, align 8, !tbaa !9
  %14 = load i8, ptr %13, align 1, !tbaa !48
  %15 = icmp ne i8 %14, 0
  br i1 %15, label %16, label %21

16:                                               ; preds = %12
  %17 = load ptr, ptr %6, align 8, !tbaa !9
  %18 = load i8, ptr %17, align 1, !tbaa !48
  %19 = sext i8 %18 to i32
  %20 = icmp eq i32 %19, 44
  br i1 %20, label %21, label %24

21:                                               ; preds = %16, %12
  %22 = load ptr, ptr %6, align 8, !tbaa !9
  %23 = load ptr, ptr %4, align 8, !tbaa !50
  store ptr %22, ptr %23, align 8, !tbaa !9
  store i32 1, ptr %3, align 4
  store i32 1, ptr %7, align 4
  br label %25

24:                                               ; preds = %16, %2
  store i32 0, ptr %3, align 4
  store i32 1, ptr %7, align 4
  br label %25

25:                                               ; preds = %24, %21
  call void @llvm.lifetime.end.p0(i64 8, ptr %6) #10
  %26 = load i32, ptr %3, align 4
  ret i32 %26
}

; Function Attrs: nounwind uwtable
define internal i32 @parse_ws_error_highlight(ptr noundef %0) #0 {
  %2 = alloca i32, align 4
  %3 = alloca ptr, align 8
  %4 = alloca ptr, align 8
  %5 = alloca i32, align 4
  %6 = alloca i32, align 4
  store ptr %0, ptr %3, align 8, !tbaa !9
  call void @llvm.lifetime.start.p0(i64 8, ptr %4) #10
  %7 = load ptr, ptr %3, align 8, !tbaa !9
  store ptr %7, ptr %4, align 8, !tbaa !9
  call void @llvm.lifetime.start.p0(i64 4, ptr %5) #10
  store i32 0, ptr %5, align 4, !tbaa !16
  br label %8

8:                                                ; preds = %62, %1
  %9 = load ptr, ptr %3, align 8, !tbaa !9
  %10 = load i8, ptr %9, align 1, !tbaa !48
  %11 = icmp ne i8 %10, 0
  br i1 %11, label %12, label %63

12:                                               ; preds = %8
  %13 = call i32 @parse_one_token(ptr noundef %3, ptr noundef @.str.293)
  %14 = icmp ne i32 %13, 0
  br i1 %14, label %15, label %16

15:                                               ; preds = %12
  store i32 0, ptr %5, align 4, !tbaa !16
  br label %55

16:                                               ; preds = %12
  %17 = call i32 @parse_one_token(ptr noundef %3, ptr noundef @.str.4)
  %18 = icmp ne i32 %17, 0
  br i1 %18, label %19, label %20

19:                                               ; preds = %16
  store i32 4096, ptr %5, align 4, !tbaa !16
  br label %54

20:                                               ; preds = %16
  %21 = call i32 @parse_one_token(ptr noundef %3, ptr noundef @.str.294)
  %22 = icmp ne i32 %21, 0
  br i1 %22, label %23, label %24

23:                                               ; preds = %20
  store i32 28672, ptr %5, align 4, !tbaa !16
  br label %53

24:                                               ; preds = %20
  %25 = call i32 @parse_one_token(ptr noundef %3, ptr noundef @.str.264)
  %26 = icmp ne i32 %25, 0
  br i1 %26, label %27, label %30

27:                                               ; preds = %24
  %28 = load i32, ptr %5, align 4, !tbaa !16
  %29 = or i32 %28, 4096
  store i32 %29, ptr %5, align 4, !tbaa !16
  br label %52

30:                                               ; preds = %24
  %31 = call i32 @parse_one_token(ptr noundef %3, ptr noundef @.str.263)
  %32 = icmp ne i32 %31, 0
  br i1 %32, label %33, label %36

33:                                               ; preds = %30
  %34 = load i32, ptr %5, align 4, !tbaa !16
  %35 = or i32 %34, 16384
  store i32 %35, ptr %5, align 4, !tbaa !16
  br label %51

36:                                               ; preds = %30
  %37 = call i32 @parse_one_token(ptr noundef %3, ptr noundef @.str.260)
  %38 = icmp ne i32 %37, 0
  br i1 %38, label %39, label %42

39:                                               ; preds = %36
  %40 = load i32, ptr %5, align 4, !tbaa !16
  %41 = or i32 %40, 8192
  store i32 %41, ptr %5, align 4, !tbaa !16
  br label %50

42:                                               ; preds = %36
  %43 = load ptr, ptr %3, align 8, !tbaa !9
  %44 = load ptr, ptr %4, align 8, !tbaa !9
  %45 = ptrtoint ptr %43 to i64
  %46 = ptrtoint ptr %44 to i64
  %47 = sub i64 %45, %46
  %48 = trunc i64 %47 to i32
  %49 = sub nsw i32 -1, %48
  store i32 %49, ptr %2, align 4
  store i32 1, ptr %6, align 4
  br label %65

50:                                               ; preds = %39
  br label %51

51:                                               ; preds = %50, %33
  br label %52

52:                                               ; preds = %51, %27
  br label %53

53:                                               ; preds = %52, %23
  br label %54

54:                                               ; preds = %53, %19
  br label %55

55:                                               ; preds = %54, %15
  %56 = load ptr, ptr %3, align 8, !tbaa !9
  %57 = load i8, ptr %56, align 1, !tbaa !48
  %58 = icmp ne i8 %57, 0
  br i1 %58, label %59, label %62

59:                                               ; preds = %55
  %60 = load ptr, ptr %3, align 8, !tbaa !9
  %61 = getelementptr inbounds nuw i8, ptr %60, i32 1
  store ptr %61, ptr %3, align 8, !tbaa !9
  br label %62

62:                                               ; preds = %59, %55
  br label %8, !llvm.loop !52

63:                                               ; preds = %8
  %64 = load i32, ptr %5, align 4, !tbaa !16
  store i32 %64, ptr %2, align 4
  store i32 1, ptr %6, align 4
  br label %65

65:                                               ; preds = %63, %42
  call void @llvm.lifetime.end.p0(i64 4, ptr %5) #10
  call void @llvm.lifetime.end.p0(i64 8, ptr %4) #10
  %66 = load i32, ptr %2, align 4
  ret i32 %66
}