; Function Attrs: nofree norecurse nosync nounwind memory(argmem: read) uwtable
define internal fastcc i32 @parse_ws_error_highlight(ptr noundef %0) unnamed_addr #10 {
  %2 = load i8, ptr %0, align 1, !tbaa !38
  %.not91 = icmp eq i8 %2, 0
  br i1 %.not91, label %.loopexit78, label %.preheader

.preheader:                                       ; preds = %1, %parse_one_token.exit
  %.093 = phi i32 [ %.1, %parse_one_token.exit ], [ 0, %1 ]
  %.04792 = phi ptr [ %spec.select, %parse_one_token.exit ], [ %0, %1 ]
  %scevgep = getelementptr i8, ptr %.04792, i64 4
  br label %3

3:                                                ; preds = %.preheader, %4
  %.07.i.i = phi ptr [ %6, %4 ], [ %.04792, %.preheader ]
  %.06.i.i.idx = phi i64 [ %.06.i.i.add, %4 ], [ 0, %.preheader ]
  %exitcond = icmp eq i64 %.06.i.i.idx, 4
  br i1 %exitcond, label %9, label %4

4:                                                ; preds = %3
  %.06.i.i.ptr = getelementptr inbounds nuw i8, ptr @.str.293, i64 %.06.i.i.idx
  %5 = load i8, ptr %.06.i.i.ptr, align 1, !tbaa !38
  %6 = getelementptr inbounds nuw i8, ptr %.07.i.i, i64 1
  %7 = load i8, ptr %.07.i.i, align 1, !tbaa !38
  %.06.i.i.add = add nuw nsw i64 %.06.i.i.idx, 1
  %8 = icmp eq i8 %7, %5
  br i1 %8, label %3, label %.loopexit77, !llvm.loop !39

9:                                                ; preds = %3
  %10 = load i8, ptr %scevgep, align 1, !tbaa !38
  switch i8 %10, label %.loopexit77 [
    i8 0, label %parse_one_token.exit
    i8 44, label %parse_one_token.exit
  ]

.loopexit77:                                      ; preds = %4, %9
  %scevgep104 = getelementptr i8, ptr %.04792, i64 7
  br label %11

11:                                               ; preds = %12, %.loopexit77
  %.07.i.i14 = phi ptr [ %.04792, %.loopexit77 ], [ %14, %12 ]
  %.06.i.i15.idx = phi i64 [ 0, %.loopexit77 ], [ %.06.i.i15.add, %12 ]
  %exitcond105 = icmp eq i64 %.06.i.i15.idx, 7
  br i1 %exitcond105, label %17, label %12

12:                                               ; preds = %11
  %.06.i.i15.ptr = getelementptr inbounds nuw i8, ptr @.str.4, i64 %.06.i.i15.idx
  %13 = load i8, ptr %.06.i.i15.ptr, align 1, !tbaa !38
  %14 = getelementptr inbounds nuw i8, ptr %.07.i.i14, i64 1
  %15 = load i8, ptr %.07.i.i14, align 1, !tbaa !38
  %.06.i.i15.add = add nuw nsw i64 %.06.i.i15.idx, 1
  %16 = icmp eq i8 %15, %13
  br i1 %16, label %11, label %.loopexit76, !llvm.loop !39

17:                                               ; preds = %11
  %18 = load i8, ptr %scevgep104, align 1, !tbaa !38
  switch i8 %18, label %.loopexit76 [
    i8 0, label %parse_one_token.exit
    i8 44, label %parse_one_token.exit
  ]

.loopexit76:                                      ; preds = %12, %17
  %scevgep106 = getelementptr i8, ptr %.04792, i64 3
  br label %19

19:                                               ; preds = %20, %.loopexit76
  %.07.i.i19 = phi ptr [ %.04792, %.loopexit76 ], [ %22, %20 ]
  %.06.i.i20.idx = phi i64 [ 0, %.loopexit76 ], [ %.06.i.i20.add, %20 ]
  %exitcond107 = icmp eq i64 %.06.i.i20.idx, 3
  br i1 %exitcond107, label %25, label %20

20:                                               ; preds = %19
  %.06.i.i20.ptr = getelementptr inbounds nuw i8, ptr @.str.294, i64 %.06.i.i20.idx
  %21 = load i8, ptr %.06.i.i20.ptr, align 1, !tbaa !38
  %22 = getelementptr inbounds nuw i8, ptr %.07.i.i19, i64 1
  %23 = load i8, ptr %.07.i.i19, align 1, !tbaa !38
  %.06.i.i20.add = add nuw nsw i64 %.06.i.i20.idx, 1
  %24 = icmp eq i8 %23, %21
  br i1 %24, label %19, label %.loopexit75.preheader, !llvm.loop !39

25:                                               ; preds = %19
  %26 = load i8, ptr %scevgep106, align 1, !tbaa !38
  switch i8 %26, label %.loopexit75.preheader [
    i8 0, label %parse_one_token.exit
    i8 44, label %parse_one_token.exit
  ]

.loopexit75.preheader:                            ; preds = %20, %25
  br label %.loopexit75

.loopexit75:                                      ; preds = %.loopexit75.preheader, %27
  %.07.i.i24 = phi ptr [ %29, %27 ], [ %.04792, %.loopexit75.preheader ]
  %.06.i.i25.idx = phi i64 [ %.06.i.i25.add, %27 ], [ 0, %.loopexit75.preheader ]
  %exitcond109 = icmp eq i64 %.06.i.i25.idx, 3
  br i1 %exitcond109, label %32, label %27

27:                                               ; preds = %.loopexit75
  %.06.i.i25.ptr = getelementptr inbounds nuw i8, ptr @.str.264, i64 %.06.i.i25.idx
  %28 = load i8, ptr %.06.i.i25.ptr, align 1, !tbaa !38
  %29 = getelementptr inbounds nuw i8, ptr %.07.i.i24, i64 1
  %30 = load i8, ptr %.07.i.i24, align 1, !tbaa !38
  %.06.i.i25.add = add nuw nsw i64 %.06.i.i25.idx, 1
  %31 = icmp eq i8 %30, %28
  br i1 %31, label %.loopexit75, label %.loopexit74.preheader, !llvm.loop !39

32:                                               ; preds = %.loopexit75
  %33 = load i8, ptr %scevgep106, align 1, !tbaa !38
  switch i8 %33, label %.loopexit74.preheader [
    i8 0, label %parse_one_token.exit28
    i8 44, label %parse_one_token.exit28
  ]

.loopexit74.preheader:                            ; preds = %27, %32
  br label %.loopexit74

parse_one_token.exit28:                           ; preds = %32, %32
  %34 = or i32 %.093, 4096
  br label %parse_one_token.exit

.loopexit74:                                      ; preds = %.loopexit74.preheader, %35
  %.07.i.i29 = phi ptr [ %37, %35 ], [ %.04792, %.loopexit74.preheader ]
  %.06.i.i30.idx = phi i64 [ %.06.i.i30.add, %35 ], [ 0, %.loopexit74.preheader ]
  %exitcond110 = icmp eq i64 %.06.i.i30.idx, 3
  br i1 %exitcond110, label %40, label %35

35:                                               ; preds = %.loopexit74
  %.06.i.i30.ptr = getelementptr inbounds nuw i8, ptr @.str.263, i64 %.06.i.i30.idx
  %36 = load i8, ptr %.06.i.i30.ptr, align 1, !tbaa !38
  %37 = getelementptr inbounds nuw i8, ptr %.07.i.i29, i64 1
  %38 = load i8, ptr %.07.i.i29, align 1, !tbaa !38
  %.06.i.i30.add = add nuw nsw i64 %.06.i.i30.idx, 1
  %39 = icmp eq i8 %38, %36
  br i1 %39, label %.loopexit74, label %.loopexit73.preheader, !llvm.loop !39

40:                                               ; preds = %.loopexit74
  %41 = load i8, ptr %scevgep106, align 1, !tbaa !38
  switch i8 %41, label %.loopexit73.preheader [
    i8 0, label %parse_one_token.exit33
    i8 44, label %parse_one_token.exit33
  ]

.loopexit73.preheader:                            ; preds = %35, %40
  br label %.loopexit73

parse_one_token.exit33:                           ; preds = %40, %40
  %42 = or i32 %.093, 16384
  br label %parse_one_token.exit

.loopexit73:                                      ; preds = %.loopexit73.preheader, %43
  %.07.i.i34 = phi ptr [ %45, %43 ], [ %.04792, %.loopexit73.preheader ]
  %.06.i.i35.idx = phi i64 [ %.06.i.i35.add, %43 ], [ 0, %.loopexit73.preheader ]
  %exitcond112 = icmp eq i64 %.06.i.i35.idx, 7
  br i1 %exitcond112, label %48, label %43

43:                                               ; preds = %.loopexit73
  %.06.i.i35.ptr = getelementptr inbounds nuw i8, ptr @.str.260, i64 %.06.i.i35.idx
  %44 = load i8, ptr %.06.i.i35.ptr, align 1, !tbaa !38
  %45 = getelementptr inbounds nuw i8, ptr %.07.i.i34, i64 1
  %46 = load i8, ptr %.07.i.i34, align 1, !tbaa !38
  %.06.i.i35.add = add nuw nsw i64 %.06.i.i35.idx, 1
  %47 = icmp eq i8 %46, %44
  br i1 %47, label %.loopexit73, label %.loopexit, !llvm.loop !39

48:                                               ; preds = %.loopexit73
  %49 = load i8, ptr %scevgep104, align 1, !tbaa !38
  switch i8 %49, label %.loopexit [
    i8 0, label %parse_one_token.exit38
    i8 44, label %parse_one_token.exit38
  ]

parse_one_token.exit38:                           ; preds = %48, %48
  %50 = or i32 %.093, 8192
  br label %parse_one_token.exit

.loopexit:                                        ; preds = %48, %43
  %51 = ptrtoint ptr %.04792 to i64
  %52 = ptrtoint ptr %0 to i64
  %.neg = sub i64 %52, %51
  %.neg12 = trunc i64 %.neg to i32
  %53 = add i32 %.neg12, -1
  br label %.loopexit78

parse_one_token.exit:                             ; preds = %parse_one_token.exit28, %parse_one_token.exit38, %parse_one_token.exit33, %25, %25, %17, %17, %9, %9
  %54 = phi i8 [ %26, %25 ], [ %26, %25 ], [ %18, %17 ], [ %18, %17 ], [ %10, %9 ], [ %10, %9 ], [ %33, %parse_one_token.exit28 ], [ %41, %parse_one_token.exit33 ], [ %49, %parse_one_token.exit38 ]
  %.148 = phi ptr [ %scevgep106, %25 ], [ %scevgep106, %25 ], [ %scevgep104, %17 ], [ %scevgep104, %17 ], [ %scevgep, %9 ], [ %scevgep, %9 ], [ %scevgep106, %parse_one_token.exit28 ], [ %scevgep106, %parse_one_token.exit33 ], [ %scevgep104, %parse_one_token.exit38 ]
  %.1 = phi i32 [ 28672, %25 ], [ 28672, %25 ], [ 4096, %17 ], [ 4096, %17 ], [ 0, %9 ], [ 0, %9 ], [ %34, %parse_one_token.exit28 ], [ %42, %parse_one_token.exit33 ], [ %50, %parse_one_token.exit38 ]
  %.not13 = icmp ne i8 %54, 0
  %spec.select.idx = zext i1 %.not13 to i64
  %spec.select = getelementptr inbounds nuw i8, ptr %.148, i64 %spec.select.idx
  %55 = load i8, ptr %spec.select, align 1, !tbaa !38
  %.not = icmp eq i8 %55, 0
  br i1 %.not, label %.loopexit78, label %.preheader, !llvm.loop !41

.loopexit78:                                      ; preds = %parse_one_token.exit, %1, %.loopexit
  %.05 = phi i32 [ %53, %.loopexit ], [ 0, %1 ], [ %.1, %parse_one_token.exit ]
  ret i32 %.05
}